Certificate:
    Data:
        Version: 3 (0x2)
        Serial Number: 4096 (0x1000)
        Signature Algorithm: sha256WithRSAEncryption
        Issuer: C=US, O=Demo Org, CN=Demo Intermediate CA
        Validity
            Not Before: Nov 28 06:17:32 2025 GMT
            Not After : Dec 30 06:17:32 2026 GMT
        Subject: O=Demo Org, CN=app.local
        Subject Public Key Info:
            Public Key Algorithm: rsaEncryption
                Public-Key: (2048 bit)
                Modulus:
                    00:8d:6c:06:d9:7d:33:7a:8d:b5:94:a1:95:f3:2c:
                    fa:a0:c4:cd:f0:55:13:20:07:cd:12:4f:ea:16:09:
                    3e:87:c4:1f:2d:3a:5e:94:e3:12:5c:2a:3d:8f:c5:
                    c6:f0:9e:26:5d:5f:15:3a:b9:fe:2f:37:d6:c5:d4:
                    94:00:fd:df:e6:30:18:a9:62:5a:7e:3e:9f:5e:b5:
                    a9:58:28:da:45:12:a3:9d:16:24:62:c0:23:2e:2d:
                    f4:93:93:96:68:d1:f0:9b:a1:a6:1e:4b:4f:73:6c:
                    ae:6f:c0:03:10:66:57:dd:16:ef:7b:ef:aa:39:3f:
                    48:1b:55:63:ef:b9:24:21:2f:71:7f:d7:bf:59:3b:
                    72:4e:f9:8d:f4:c0:52:00:fb:47:b4:a1:75:ff:0e:
                    d3:3b:2e:10:0c:71:90:12:1d:cd:19:88:80:a5:9f:
                    4c:cf:ed:7c:20:b3:4f:ec:ea:dc:b3:ee:c8:bc:89:
                    a3:e3:40:64:90:53:32:90:7c:6c:b6:1f:b7:bb:31:
                    05:45:3e:30:0c:22:9b:77:ff:92:de:c5:49:a9:96:
                    34:54:80:b6:a0:43:1f:50:2a:03:7d:f7:18:85:b5:
                    ea:e6:df:93:0f:98:c6:aa:e6:94:98:15:70:1c:da:
                    ee:10:40:eb:bb:d4:cd:de:a0:14:a0:3a:7c:cf:94:
                    e0:37
                Exponent: 65537 (0x10001)
        X509v3 extensions:
            X509v3 Basic Constraints: 
                CA:FALSE
            X509v3 Key Usage: critical
                Digital Signature, Key Encipherment
            X509v3 Extended Key Usage: 
                TLS Web Server Authentication
            X509v3 Subject Key Identifier: 
                62:62:11:7A:AA:1D:00:5F:4E:6A:60:70:1A:EA:E4:A7:3B:82:00:5D
            X509v3 Authority Key Identifier: 
                6A:06:2C:8B:C4:B0:49:54:85:0D:DE:82:6D:8C:85:A5:C3:A9:5D:6C
            X509v3 Subject Alternative Name: 
                DNS:app.local, DNS:www.app.local, IP Address:127.0.0.1
    Signature Algorithm: sha256WithRSAEncryption
    Signature Value:
        3b:5b:95:34:01:2c:09:fd:b1:d4:08:f0:82:c9:e0:85:ac:1b:
        47:4f:c8:1f:32:8d:61:bd:fb:db:0d:c1:2f:f5:33:83:26:17:
        8e:6a:96:29:94:d6:88:53:62:94:00:b8:8c:93:ce:6c:1a:9e:
        5c:7e:fa:66:95:50:4f:66:14:a6:60:57:89:f3:80:3a:e8:3e:
        16:bb:45:48:e8:05:91:91:af:a1:53:ce:29:61:81:41:e0:96:
        8f:22:ce:6d:3f:82:e3:2f:d5:11:1d:36:18:1a:96:12:47:59:
        45:9c:7c:41:c8:fa:1a:35:39:a3:c2:b5:cd:e1:9a:c5:59:a6:
        e1:9e:e0:bf:6d:81:09:24:70:34:a9:12:d1:c4:b2:a8:d7:b9:
        77:c8:26:7b:06:c5:ec:f5:b2:fd:2c:d3:f8:43:dc:35:c1:36:
        5d:7d:ed:82:89:c5:6f:23:9c:d4:0b:3e:f0:75:25:c8:92:a6:
        f7:d1:67:07:fb:b9:e2:fb:92:96:d2:ec:06:67:73:c6:6d:6f:
        0a:c1:5c:b3:69:8e:57:08:f4:f5:3e:9a:08:74:59:b4:55:c1:
        f9:b2:3d:b4:61:e1:02:e8:2a:20:3e:f4:2d:a7:cf:c4:05:68:
        87:3b:59:58:51:d7:c8:16:53:62:9c:36:6c:65:1a:3f:8b:bd:
        2b:a6:b2:d6:17:c1:3c:39:07:8e:b7:ee:32:5d:3e:2e:89:3b:
        af:43:35:96:a7:a2:aa:20:7e:94:0a:ef:6b:cf:07:61:a3:3e:
        d2:fb:70:8a:c5:ac:6d:29:20:48:64:66:a3:de:0e:fb:45:76:
        bf:1c:a9:18:e0:7d:39:89:a7:72:b0:7e:9d:36:9b:07:66:fe:
        8f:da:cb:c2:56:a0:ef:9c:ff:2c:e5:e2:b5:97:d7:22:04:06:
        d8:b0:cb:c9:fc:c5:38:7a:0d:51:e3:07:59:ec:a4:a0:9f:df:
        10:31:83:6b:e7:88:ad:50:eb:be:c3:31:7c:a3:8c:c4:09:8d:
        c4:5f:53:44:b4:14
-----BEGIN CERTIFICATE-----
MIIEATCCAmmgAwIBAgICEAAwDQYJKoZIhvcNAQELBQAwPzELMAkGA1UEBhMCVVMx
ETAPBgNVBAoMCERlbW8gT3JnMR0wGwYDVQQDDBREZW1vIEludGVybWVkaWF0ZSBD
QTAeFw0yNTExMjgwNjE3MzJaFw0yNjEyMzAwNjE3MzJaMCcxETAPBgNVBAoMCERl
bW8gT3JnMRIwEAYDVQQDDAlhcHAubG9jYWwwggEiMA0GCSqGSIb3DQEBAQUAA4IB
DwAwggEKAoIBAQCNbAbZfTN6jbWUoZXzLPqgxM3wVRMgB80ST+oWCT6HxB8tOl6U
4xJcKj2PxcbwniZdXxU6uf4vN9bF1JQA/d/mMBipYlp+Pp9etalYKNpFEqOdFiRi
wCMuLfSTk5Zo0fCboaYeS09zbK5vwAMQZlfdFu9776o5P0gbVWPvuSQhL3F/179Z
O3JO+Y30wFIA+0e0oXX/DtM7LhAMcZASHc0ZiICln0zP7Xwgs0/s6tyz7si8iaPj
QGSQUzKQfGy2H7e7MQVFPjAMIpt3/5LexUmpljRUgLagQx9QKgN99xiFterm35MP
mMaq5pSYFXAc2u4QQOu71M3eoBSgOnzPlOA3AgMBAAGjgZ4wgZswCQYDVR0TBAIw
ADAOBgNVHQ8BAf8EBAMCBaAwEwYDVR0lBAwwCgYIKwYBBQUHAwEwHQYDVR0OBBYE
FGJiEXqqHQBfTmpgcBrq5Kc7ggBdMB8GA1UdIwQYMBaAFGoGLIvEsElUhQ3egm2M
haXDqV1sMCkGA1UdEQQiMCCCCWFwcC5sb2NhbIINd3d3LmFwcC5sb2NhbIcEfwAA
ATANBgkqhkiG9w0BAQsFAAOCAYEAO1uVNAEsCf2x1AjwgsnghawbR0/IHzKNYb37
2w3BL/UzgyYXjmqWKZTWiFNilAC4jJPObBqeXH76ZpVQT2YUpmBXifOAOug+FrtF
SOgFkZGvoVPOKWGBQeCWjyLObT+C4y/VER02GBqWEkdZRZx8Qcj6GjU5o8K1zeGa
xVmm4Z7gv22BCSRwNKkS0cSyqNe5d8gmewbF7PWy/SzT+EPcNcE2XX3tgonFbyOc
1As+8HUlyJKm99FnB/u54vuSltLsBmdzxm1vCsFcs2mOVwj09T6aCHRZtFXB+bI9
tGHhAugqID70LafPxAVohztZWFHXyBZTYpw2bGUaP4u9K6ay1hfBPDkHjrfuMl0+
Lok7r0M1lqeiqiB+lArva88HYaM+0vtwisWsbSkgSGRmo94O+0V2vxypGOB9OYmn
crB+nTabB2b+j9rLwlag75z/LOXitZfXIgQG2LDLyfzFOHoNUeMHWeykoJ/fEDGD
a+eIrVDrvsMxfKOMxAmNxF9TRLQU
-----END CERTIFICATE-----
-----BEGIN CERTIFICATE-----
MIIE4DCCAsigAwIBAgICEAAwDQYJKoZIhvcNAQELBQAwPzELMAkGA1UEBhMCVVMx
GTAXBgNVBAoMEERlbW8gT3JnIFJvb3QgQ0ExFTATBgNVBAMMDERlbW8gUm9vdCBD
QTAeFw0yNTExMjIwNzIxNDNaFw0zMDExMjEwNzIxNDNaMD8xCzAJBgNVBAYTAlVT
MREwDwYDVQQKDAhEZW1vIE9yZzEdMBsGA1UEAwwURGVtbyBJbnRlcm1lZGlhdGUg
Q0EwggGiMA0GCSqGSIb3DQEBAQUAA4IBjwAwggGKAoIBgQC/BJMJO1/nS6G192rO
0SN1vmf8WoEqTJRnXdPkS5Hw8BPf839aGsykrGi1zY94TdeTi+BcB5RL2ly99mJs
Q5nSxa8AubTs4/14ZxwenlkcQPKAO0ZS3ZuAHFg/jJ9P2N6q60uxOtBW7fq8bwyH
HlOJQ3MH5t4SNSrmkrBTjZ8KqocgkxA6Uw26WY+Yl8+ITUP3UnEKGqXYC+O0whJE
nyjLQRkctgv9HjkY14uqvoCYsnFDVo/meYS9vdDoKuzrmniCgfOA3DoOV05JjCoa
GoiNGOLiz2MeD7E3p1dYc1N7BCiSya70haLHiayR2wsrQyrNuPuUKIfyoo9iuJdy
X2VN7eSF/1mew5XHkDC+Y9WMw6S5N9INkv0XUemQMzYSc2s5GGYHE19K3A/TqCEC
W95PPya13ODtottrYZpTxs5K+ns7yQxlqZPeFxDPMtmFQHlsoCu8SXh0jkLON/U/
ifZJWC4D5VbGlNJTcXXqE6RtjqhxBfTWVznvHF0LsILr5AcCAwEAAaNmMGQwEgYD
VR0TAQH/BAgwBgEB/wIBADAOBgNVHQ8BAf8EBAMCAQYwHQYDVR0OBBYEFGoGLIvE
sElUhQ3egm2MhaXDqV1sMB8GA1UdIwQYMBaAFCJASvNQJZAzLcwT8E24wpG2tbjE
MA0GCSqGSIb3DQEBCwUAA4ICAQB9kysfmodSzlrCThAAkyajLBN5y98nW4zjoHpU
DqlkOTxu82QCsqqhUGsVjatF1C2W6jplwm3n6ztmiNFATUVP2I+9OL/ocRafLOqI
cjGF80retKiBO24DgZeK5SztXr6YMhSWVISWaJheasZruEmTnb3Ng2iCqkAblX8p
bqb4VNOzEeh4B7F3Z2/SotqEct9O+VmSHFbd1NTAVdiUujx0zH/qpONIqFKY0YKE
oV22iqY69N+g6apS1zV1t0MoU3LeRgsUrlV/P9xgybXnGDWCJonRJjSUpmg5cOnJ
4NFtdz5/hY9ajzRIyjmiM2KDBTnLl2jEJp32K8j2kBj5GxwSGBz8HnVeNj/wOyMc
jjcXKAW84xm/mi9RLTZyn25d4IHD/8XrKGA902NV63V35jIHsk0bK5DhKShQ6rK4
4aGa9Mx8Qv9PzD4Qx9+ddAQVfeGP9c50P+vlgD5EoUTVj+zRZy3Qgp/ky4JMGInC
eFrWPfQB/sagAZ3wHHeaU/jDubkIVSffUyBrcwwoqma/L/6z8C0i0DD9mgJBhotv
jFWo+hzzI2XIsxlgqz6VPYU9g3KATZgaSTnifVn9ySpD2w+kTpFSyfj7HfnhOarO
T7+mzIOB4+ayEVktM2fdLVISC2e4dzEaP9Ap2JTVgnuWchGuhOj4rx1x2oMoaudz
Fikhhg==
-----END CERTIFICATE-----
-----BEGIN CERTIFICATE-----
MIIFcjCCA1qgAwIBAgIUWfOn1icBWJyyWW+kQMlzAqGkCpEwDQYJKoZIhvcNAQEL
BQAwPzELMAkGA1UEBhMCVVMxGTAXBgNVBAoMEERlbW8gT3JnIFJvb3QgQ0ExFTAT
BgNVBAMMDERlbW8gUm9vdCBDQTAeFw0yNTExMjIwNjIzMjNaFw00NTExMTcwNjIz
MjNaMD8xCzAJBgNVBAYTAlVTMRkwFwYDVQQKDBBEZW1vIE9yZyBSb290IENBMRUw
EwYDVQQDDAxEZW1vIFJvb3QgQ0EwggIiMA0GCSqGSIb3DQEBAQUAA4ICDwAwggIK
AoICAQDihaAdDnexcCRPKirlv5ET0JvdPCIl8iPJ614UUE16YDbiM0EkLkM9ZxNi
wzDUycx/nd3tNJ9K7aB3TwJFZlNrRYj/0Kf73wvkOsYmVf+ULoBUy0/67vNp0s4C
0/4F4r634tllIfCgWOQZr/aNEKnKlN+YZRVup0WjV+u9+dcU4wKP5RA7GIfj4rHK
hdYEU2iOkmzfub9Ym44uCocMOEllaCdB6VMkz2HNk8QBGta0Bz0HiEqSpmufQzC7
5ukey57MTiabuq/pn2o1CaMHh4KTqcGjhHPnxMqwYyd/MoYfHEtHWe1Q4wGeZYeo
aHCDMzPrVXGJ7ittiVX1oTcpnCHVzmO+KdVzmjCqbYzz15l+HsqCcA76KTYuUcTr
3ib/AEzAGJTeyx5K5shQDQAcGLkCfB+CeQ/ZIZnkIyWzW0wUQWgnrels+Jh7RVws
f9C7CjwFts0NV7rXhH6Ytu41syOzpaLuc6uZ2wUViJRsm44ZGiXE3sbh5ZhquWCR
fzDvZPOEWKyk4MbYviFW4fsOv0LQjcrVlzOOEhd7Ee69tJ9PqzE3Sqq4x3rmcMUX
uB4CWvDZePJBQMqTuxz8OVuirEK9KpA5PzIxDHVh1fBfxo3BKFWV5ioVJyFU4yOE
yDvO7FDyUjgik3N36RoukiXsLR8lSImZjtf+XXSrBxd16W9idQIDAQABo2YwZDAd
BgNVHQ4EFgQUIkBK81AlkDMtzBPwTbjCkba1uMQwHwYDVR0jBBgwFoAUIkBK81Al
kDMtzBPwTbjCkba1uMQwEgYDVR0TAQH/BAgwBgEB/wIBATAOBgNVHQ8BAf8EBAMC
AQYwDQYJKoZIhvcNAQELBQADggIBAA9JE3DqpH4AIt6KJqm/H67SOwh26JTT7AlS
P4qeVNNvbkYIaiWbMxecmiN53Oviy95jQTW+34iWSC7933pCbcecDSLY5x0T0DZv
fdkHoXWQOLDNn5egtaIGY28bblHbcnwBJvpOm4dHnZDAzuDID+mgtVQNidPT03pf
/j5n2J8dqthdTAwHXxJN5YxxU/7WJrGqVR2H1Lfe1SSd2Bxrz/t7VfFPT0bVqCqf
2H3BXgREf0slbujKLv/BCPNGX9vyQJmQL9m1YEpfPe4y3BTFeqFaSIlUp2Sbmbhx
eAHZgwkoPa7m0FhgLndrQnfUpEALFCLBSWXQn1Sduk6ygNi/HflhGy7kaKnSRg90
py2QJGUmAT/fZ5i9Pjsvw4oEy/Xj2WlBviHaIC3jIBaiL5lgfCqTAeI8dZThrrIw
irCR7tl7s1XQoTW6WMIGr+gc9fMgEaCDWG13YiPKplVaV+vKez1mSh7pUrDlM3kG
0Z2nLznrSxjm5C6N0AzYBrejtmt+xOPpCQM7CIPUxibihRQOGGD6qw0k/9RfB7/c
GodIjxETrF+IJwxNU2WqhCdtot1hTn/OP4FOqhTOc/6wyFMb4aMEUm9+xHcSq3wq
rXL0vJxYClBlFTgXh2k4Y61/BwsVplwY27078CzwtNzPYc/08yZNr5S94ZtTlWZh
iQ/IaEOU
-----END CERTIFICATE-----
