Certificate:
    Data:
        Version: 3 (0x2)
        Serial Number: 4097 (0x1001)
        Signature Algorithm: sha256WithRSAEncryption
        Issuer: C=US, O=Demo Intermediate CA, CN=Demo Signing CA
        Validity
            Not Before: Nov 28 08:19:13 2025 GMT
            Not After : Dec 30 08:19:13 2026 GMT
        Subject: O=Demo Org, CN=app.local
        Subject Public Key Info:
            Public Key Algorithm: rsaEncryption
                Public-Key: (2048 bit)
                Modulus:
                    00:90:a5:45:4a:b2:41:3b:21:04:d1:89:a8:59:0b:
                    4e:f7:77:c8:d1:79:42:b7:e1:9c:03:40:e4:59:e7:
                    d6:f2:c9:0e:93:c5:7c:c4:1c:b3:2c:20:e3:61:13:
                    b9:4a:34:ee:cf:4e:8a:fb:b1:fc:e3:5d:0d:bd:65:
                    20:c0:10:59:13:15:22:9c:47:23:4d:22:96:50:15:
                    0c:45:93:8f:a7:4b:98:d0:ed:b8:2d:00:3a:33:1a:
                    31:0c:69:fd:4a:68:57:75:29:d8:d1:9b:6c:c7:04:
                    65:25:da:d1:6c:96:0a:2c:75:50:ba:0c:70:a4:74:
                    b1:ed:64:bb:4c:cf:f2:b2:7a:af:17:1f:95:57:51:
                    fc:5e:52:5d:c7:01:cf:97:3f:15:52:91:c2:97:ad:
                    2e:a8:81:14:1e:c6:a8:fe:34:30:80:1b:93:56:93:
                    38:a2:75:f8:ce:4f:4f:34:6f:07:03:65:a7:8f:46:
                    04:44:d8:90:59:5b:f6:96:c2:a8:86:3c:04:a9:e9:
                    14:50:3e:af:bc:5a:2a:4b:71:84:68:1d:b2:32:3e:
                    c9:e1:9e:dc:c3:e4:7b:79:cf:c9:96:37:84:15:2c:
                    ca:31:c2:b9:75:35:b8:77:bc:18:a6:72:05:a8:fb:
                    52:f7:34:88:01:97:54:47:83:88:a2:3f:25:12:71:
                    94:b9
                Exponent: 65537 (0x10001)
        X509v3 extensions:
            X509v3 Basic Constraints: 
                CA:FALSE
            X509v3 Key Usage: critical
                Digital Signature, Key Encipherment
            X509v3 Extended Key Usage: 
                TLS Web Server Authentication
            X509v3 Subject Key Identifier: 
                28:B8:AD:1A:74:0A:10:6F:E0:4A:E7:44:67:B3:96:BE:F6:FD:5C:2D
            X509v3 Authority Key Identifier: 
                23:DE:9C:21:35:F0:C7:83:B7:08:13:21:DB:8E:3C:DB:96:AC:70:CE
            X509v3 Subject Alternative Name: 
                DNS:app.local, DNS:www.app.local, IP Address:127.0.0.1
    Signature Algorithm: sha256WithRSAEncryption
    Signature Value:
        09:67:1f:36:0f:c3:a3:83:41:83:f3:cf:f5:f6:a3:3f:5a:f6:
        7a:23:b2:52:2e:ef:93:0f:7f:41:65:fd:36:4b:99:f7:9c:9a:
        19:fc:ea:72:71:9d:9b:2a:af:9c:76:a2:01:d7:21:44:30:d0:
        12:f2:33:b2:3f:4f:52:4f:a1:72:87:ac:b6:1a:9f:69:6d:f4:
        4a:55:1a:01:33:b0:af:1a:d6:a6:e7:d5:40:b0:45:07:bb:15:
        0f:a2:45:94:0f:31:61:e2:dc:9e:ee:36:60:46:d5:09:e3:5c:
        61:e1:f7:f5:02:58:d2:96:bb:08:1d:71:0f:17:77:eb:bd:3c:
        05:83:5e:6f:50:3b:7d:6e:86:8c:c9:c3:68:9c:50:63:d2:7e:
        75:15:63:69:a3:e8:a0:65:49:3f:f8:e4:5e:31:6c:b8:cc:12:
        3e:23:db:4a:24:4b:7b:0c:cc:7a:bf:58:de:fa:98:3c:4b:81:
        0d:9b:c9:fb:8d:59:55:16:d4:a4:44:57:34:50:7b:5e:85:4a:
        12:80:05:7c:5a:38:cf:04:45:9f:76:ef:30:bd:74:6a:c9:84:
        eb:dd:65:d6:4a:af:44:7d:30:23:14:f4:3b:36:d7:e2:37:92:
        31:93:33:cf:84:bf:18:8a:ea:f7:51:e4:06:a1:b0:08:1e:68:
        cd:09:d9:f3:95:7b:5c:28:ec:f5:d5:53:6e:20:06:30:13:f6:
        d2:b0:65:33:4a:d5:7e:8f:db:46:99:8d:9f:bd:ab:10:b9:2a:
        3f:91:db:0b:fc:21:f5:98:cf:83:93:4c:7a:eb:88:84:17:06:
        91:ff:44:8f:13:49:be:3a:43:66:13:5d:7a:d9:75:33:a9:c5:
        ba:6e:73:7a:ea:ef:26:91:3b:06:7b:21:d2:1a:16:6d:86:eb:
        e6:59:4c:fd:7a:cf:0f:db:6f:ec:a6:20:32:1b:a1:86:f6:9e:
        2e:e2:a7:9d:05:20:9a:08:6c:1e:33:7b:a6:c6:d5:a3:30:6f:
        21:c6:b0:0b:27:ad:e6:96:51:3d:18:69:88:39:7e:1f:19:d8:
        d8:37:73:99:ae:0b:6d:15:74:19:a9:9b:52:34:2f:c5:2d:2a:
        de:12:fd:10:88:d4:aa:1b:68:48:a3:60:a5:51:24:d6:75:b8:
        7c:46:7b:8c:96:39:d6:1f:f1:cb:c2:eb:9f:89:d6:58:a6:47:
        d5:3b:58:46:32:04:42:b0:fe:c2:ac:66:b0:bf:0e:8a:30:51:
        b7:86:67:cb:89:f6:7e:2f:a8:ad:66:91:73:ee:d5:ce:1a:97:
        5b:73:0e:85:ed:3d:af:4b:c0:ab:73:d7:3b:2c:49:24:48:3b:
        6b:df:d9:a7:a7:38:37:80
-----BEGIN CERTIFICATE-----
MIIEiDCCAnCgAwIBAgICEAEwDQYJKoZIhvcNAQELBQAwRjELMAkGA1UEBhMCVVMx
HTAbBgNVBAoMFERlbW8gSW50ZXJtZWRpYXRlIENBMRgwFgYDVQQDDA9EZW1vIFNp
Z25pbmcgQ0EwHhcNMjUxMTI4MDgxOTEzWhcNMjYxMjMwMDgxOTEzWjAnMREwDwYD
VQQKDAhEZW1vIE9yZzESMBAGA1UEAwwJYXBwLmxvY2FsMIIBIjANBgkqhkiG9w0B
AQEFAAOCAQ8AMIIBCgKCAQEAkKVFSrJBOyEE0YmoWQtO93fI0XlCt+GcA0DkWefW
8skOk8V8xByzLCDjYRO5SjTuz06K+7H8410NvWUgwBBZExUinEcjTSKWUBUMRZOP
p0uY0O24LQA6MxoxDGn9SmhXdSnY0ZtsxwRlJdrRbJYKLHVQugxwpHSx7WS7TM/y
snqvFx+VV1H8XlJdxwHPlz8VUpHCl60uqIEUHsao/jQwgBuTVpM4onX4zk9PNG8H
A2Wnj0YERNiQWVv2lsKohjwEqekUUD6vvFoqS3GEaB2yMj7J4Z7cw+R7ec/JljeE
FSzKMcK5dTW4d7wYpnIFqPtS9zSIAZdUR4OIoj8lEnGUuQIDAQABo4GeMIGbMAkG
A1UdEwQCMAAwDgYDVR0PAQH/BAQDAgWgMBMGA1UdJQQMMAoGCCsGAQUFBwMBMB0G
A1UdDgQWBBQouK0adAoQb+BK50Rns5a+9v1cLTAfBgNVHSMEGDAWgBQj3pwhNfDH
g7cIEyHbjjzblqxwzjApBgNVHREEIjAggglhcHAubG9jYWyCDXd3dy5hcHAubG9j
YWyHBH8AAAEwDQYJKoZIhvcNAQELBQADggIBAAlnHzYPw6ODQYPzz/X2oz9a9noj
slIu75MPf0Fl/TZLmfecmhn86nJxnZsqr5x2ogHXIUQw0BLyM7I/T1JPoXKHrLYa
n2lt9EpVGgEzsK8a1qbn1UCwRQe7FQ+iRZQPMWHi3J7uNmBG1QnjXGHh9/UCWNKW
uwgdcQ8Xd+u9PAWDXm9QO31uhozJw2icUGPSfnUVY2mj6KBlST/45F4xbLjMEj4j
20okS3sMzHq/WN76mDxLgQ2byfuNWVUW1KREVzRQe16FShKABXxaOM8ERZ927zC9
dGrJhOvdZdZKr0R9MCMU9Ds21+I3kjGTM8+EvxiK6vdR5AahsAgeaM0J2fOVe1wo
7PXVU24gBjAT9tKwZTNK1X6P20aZjZ+9qxC5Kj+R2wv8IfWYz4OTTHrriIQXBpH/
RI8TSb46Q2YTXXrZdTOpxbpuc3rq7yaROwZ7IdIaFm2G6+ZZTP16zw/bb+ymIDIb
oYb2ni7ip50FIJoIbB4ze6bG1aMwbyHGsAsnreaWUT0YaYg5fh8Z2Ng3c5muC20V
dBmpm1I0L8UtKt4S/RCI1KobaEijYKVRJNZ1uHxGe4yWOdYf8cvC65+J1limR9U7
WEYyBEKw/sKsZrC/DoowUbeGZ8uJ9n4vqK1mkXPu1c4al1tzDoXtPa9LwKtz1zss
SSRIO2vf2aenODeA
-----END CERTIFICATE-----
-----BEGIN CERTIFICATE-----
MIIFkDCCA3igAwIBAgIUeWavyGXT28IGNSrE4Jv6fqa1JWgwDQYJKoZIhvcNAQEL
BQAwTjELMAkGA1UEBhMCVVMxFTATBgNVBAoMDERlbW8gUm9vdCBDQTEoMCYGA1UE
AwwfRGVtbyBSb290IENlcnRpZmljYXRlIEF1dGhvcml0eTAeFw0yNTExMjgwNzQy
MjRaFw00NTExMjMwNzQyMjRaME4xCzAJBgNVBAYTAlVTMRUwEwYDVQQKDAxEZW1v
IFJvb3QgQ0ExKDAmBgNVBAMMH0RlbW8gUm9vdCBDZXJ0aWZpY2F0ZSBBdXRob3Jp
dHkwggIiMA0GCSqGSIb3DQEBAQUAA4ICDwAwggIKAoICAQC2LEMmviMrqdgKck4o
atTaAZ6EpBk+OIgbrhE41YjzwqCSYC6HaU7vL3pB+R6aPCNRf5ayF5Wpe/NmY7kM
RcL4dGMx6syZqpn2eD0AD4NVZ7FnP1Uf+yDaM42inbmvz8WBwze7qI+8I4diInN+
sHRgLLFjUIVBWvtxPlBcBTIIyGyBFwJir3CVVRhzXMt78QkCpDI4WHQHIXdpMVsL
rR9dJjqwoDQ1FQ6KZveCoJ9HqxBdowYBrWSTioOSesWiD42kzD90PFUhtlA/E0yV
RkKx3Pc2NnSJ7vlmFBgvSKKqXkEtDz9rv6AFBtC2ABSUGEg3afLzsZO5INM3ihww
WISsd+ePLxs8L2o3VUIEsan9rm8RlNL7sdBJF8LSS3LoUHOuCXtuucpSuNrou0kT
aOiwGQuCvOSOWKRxRhgwKrNiyqB8KewWGfAl+HJiXmAAqVGbooYbdp5Supu9bGVY
0/ORTZ26zPP+WM09Tg9wEeY9H/MquabCqCMHbX01uF1luSF6bJv+bsUxpbaTXxWs
Kofrt2GKhzVoydm9hcj1mS7ScPAFtBhez3cYLecmnE7QTGO7CTgQWwv3l76NBp4d
pTDLUGTRmfS7k8KfvJD/49f+h5Ln7sDihplj25gmCeTVT9bxZo+j3NEKYScM0rti
AfjDy7Aj7MLpLb+aaq4Vyy5h6wIDAQABo2YwZDAdBgNVHQ4EFgQUt5B6QTa6CmeP
S2n4Oe1Kaz74iY8wHwYDVR0jBBgwFoAUt5B6QTa6CmePS2n4Oe1Kaz74iY8wEgYD
VR0TAQH/BAgwBgEB/wIBATAOBgNVHQ8BAf8EBAMCAQYwDQYJKoZIhvcNAQELBQAD
ggIBAKLKehgk+fbgxqjj3r2yqTdO7jcMGglYmw4wZ60c8EeK6YBOrWgAlW9AYuoO
FtIuQxah9k7mlAtFUvGH+MfMssFRaCGorn3kWj0YFabdqNxyqxNVZMDgEK6KZFy1
lAS44vnSUXJI9Wk4M3JZMoSKDt9sjWfKe0l4rAjNQiJg8iXKdFcVzrBDvNbzCpkU
k/oqSxHtDx9IaX9nJ9vHDegFgH/amsV3J/+voBvXCtd3whWj/SVpOaiPBHk159Wj
y/dvjH3ynhnHIdnK1vhRvuI0rgiVuJ6OpalUuENSY2DZCwvvECzir3RTBShKUYLa
Ux/SjfMtmg7dVcMAOZkzmDSWx/6tuMW3xJ9dMxP3CvKPtX3kLU8kKt83j/K27lGZ
bouEdbVkzhKLaozkDR1BqXkKiFiXwRoG7xriRbq/aYLV1/idsLjJu3H1vm8FVdBv
51xhMFG5wiQLsWjGt6Ddt/Cz7+MENE07VyLLHuHKnX+fCR3yTSb8YpD6DqsIQkNK
T9/bcwWIneWEKpDfrmCh+5oWDdebn4I5WnZN4KcPrGYXqcyxqQr65ZNQmMIObQvi
1TPCIQC3JQnXLFqxlkOHAjcOcq+5CzyS2uLezF27VyyBjgB1dAz9/47uNF3CXvYj
h3WxK4/hdw9OXf6STOplz36GkzbLbG0DWe8k0F8dwDkOIZgH
-----END CERTIFICATE-----
